target datalayout = "e-m:e-p270:32:32-p271:32:32-p272:64:64-i64:64-i128:128-f80:128-n8:16:32:64-S128"
target triple = "x86_64-pc-linux-gnu"

; Function Attrs: mustprogress nounwind uwtable
define internal noundef zeroext i1 @_ZN4llvm10AArch64_AML17isAnyMOVZMovAliasEmi(i64 noundef %0, i32 noundef %1) #0 {
  %3 = alloca i1, align 1
  %4 = alloca i64, align 8
  %5 = alloca i32, align 4
  %6 = alloca i32, align 4
  store i64 %0, ptr %4, align 8
  store i32 %1, ptr %5, align 4
  store i32 0, ptr %6, align 4
  br label %7

7:                                                ; preds = %22, %2
  %8 = load i32, ptr %6, align 4
  %9 = load i32, ptr %5, align 4
  %10 = sub nsw i32 %9, 16
  %11 = icmp sle i32 %8, %10
  br i1 %11, label %12, label %25

12:                                               ; preds = %7
  %13 = load i64, ptr %4, align 8
  %14 = load i32, ptr %6, align 4
  %15 = zext i32 %14 to i64
  %16 = shl i64 65535, %15
  %17 = xor i64 %16, -1
  %18 = and i64 %13, %17
  %19 = icmp eq i64 %18, 0
  br i1 %19, label %20, label %21

20:                                               ; preds = %12
  store i1 true, ptr %3, align 1
  br label %26

21:                                               ; preds = %12
  br label %22

22:                                               ; preds = %21
  %23 = load i32, ptr %6, align 4
  %24 = add nsw i32 %23, 16
  store i32 %24, ptr %6, align 4
  br label %7, !llvm.loop !17

25:                                               ; preds = %7
  store i1 false, ptr %3, align 1
  br label %26

26:                                               ; preds = %25, %20
  %27 = load i1, ptr %3, align 1
  ret i1 %27
}

; Function Attrs: mustprogress nounwind uwtable
define internal noundef zeroext i1 @_ZN4llvm10AArch64_AML17isAnyMOVWMovAliasEmi(i64 noundef %0, i32 noundef %1) #0 {
  %3 = alloca i1, align 1
  %4 = alloca i64, align 8
  %5 = alloca i32, align 4
  store i64 %0, ptr %4, align 8
  store i32 %1, ptr %5, align 4
  %6 = load i64, ptr %4, align 8
  %7 = load i32, ptr %5, align 4
  %8 = call noundef zeroext i1 @_ZN4llvm10AArch64_AML17isAnyMOVZMovAliasEmi(i64 noundef %6, i32 noundef %7)
  br i1 %8, label %9, label %10

9:                                                ; preds = %2
  store i1 true, ptr %3, align 1
  br label %22

10:                                               ; preds = %2
  %11 = load i64, ptr %4, align 8
  %12 = xor i64 %11, -1
  store i64 %12, ptr %4, align 8
  %13 = load i32, ptr %5, align 4
  %14 = icmp eq i32 %13, 32
  br i1 %14, label %15, label %18

15:                                               ; preds = %10
  %16 = load i64, ptr %4, align 8
  %17 = and i64 %16, 4294967295
  store i64 %17, ptr %4, align 8
  br label %18

18:                                               ; preds = %15, %10
  %19 = load i64, ptr %4, align 8
  %20 = load i32, ptr %5, align 4
  %21 = call noundef zeroext i1 @_ZN4llvm10AArch64_AML17isAnyMOVZMovAliasEmi(i64 noundef %19, i32 noundef %20)
  store i1 %21, ptr %3, align 1
  br label %22

22:                                               ; preds = %18, %9
  %23 = load i1, ptr %3, align 1
  ret i1 %23
}