; Function Attrs: mustprogress nofree norecurse nosync nounwind willreturn memory(none) uwtable
define internal fastcc noundef zeroext i1 @_ZN4llvm10AArch64_AML17isAnyMOVWMovAliasEmi(i64 noundef %0, i32 noundef %1) unnamed_addr #3 {
  %3 = add nsw i32 %1, -16
  %.not6.i = icmp sgt i32 %1, 15
  br i1 %.not6.i, label %.lr.ph.i, label %_ZN4llvm10AArch64_AML17isAnyMOVZMovAliasEmi.exit

4:                                                ; preds = %.lr.ph.i
  %indvars.iv.next.i = add nuw nsw i64 %indvars.iv.i, 16
  %5 = trunc nuw i64 %indvars.iv.next.i to i32
  %.not.not.i = icmp slt i32 %3, %5
  br i1 %.not.not.i, label %10, label %.lr.ph.i, !llvm.loop !252

.lr.ph.i:                                         ; preds = %2, %4
  %indvars.iv.i = phi i64 [ %indvars.iv.next.i, %4 ], [ 0, %2 ]
  %6 = shl i64 65535, %indvars.iv.i
  %7 = xor i64 %6, -1
  %8 = and i64 %0, %7
  %9 = icmp eq i64 %8, 0
  br i1 %9, label %_ZN4llvm10AArch64_AML17isAnyMOVZMovAliasEmi.exit, label %4

10:                                               ; preds = %4
  %11 = icmp eq i32 %1, 32
  br i1 %11, label %.lr.ph.i18.preheader, label %.lr.ph.i13

.lr.ph.i18.preheader:                             ; preds = %10
  %.masked = and i64 %0, 4294967295
  br label %.lr.ph.i18

.lr.ph.i13:                                       ; preds = %10, %.lr.ph.i13
  %indvars.iv.i14 = phi i64 [ %indvars.iv.next.i15, %.lr.ph.i13 ], [ 0, %10 ]
  %12 = shl i64 65535, %indvars.iv.i14
  %13 = or i64 %12, %0
  %14 = icmp eq i64 %13, -1
  %indvars.iv.next.i15 = add nuw nsw i64 %indvars.iv.i14, 16
  %15 = trunc nuw i64 %indvars.iv.next.i15 to i32
  %.not.not.i16 = icmp slt i32 %3, %15
  %or.cond = select i1 %14, i1 true, i1 %.not.not.i16
  br i1 %or.cond, label %_ZN4llvm10AArch64_AML17isAnyMOVZMovAliasEmi.exit, label %.lr.ph.i13, !llvm.loop !252

.lr.ph.i18:                                       ; preds = %.lr.ph.i18.preheader, %.lr.ph.i18
  %.not.not = phi i1 [ true, %.lr.ph.i18 ], [ false, %.lr.ph.i18.preheader ]
  %indvars.iv.i19 = phi i64 [ 16, %.lr.ph.i18 ], [ 0, %.lr.ph.i18.preheader ]
  %16 = shl nuw nsw i64 65535, %indvars.iv.i19
  %17 = or i64 %16, %.masked
  %18 = icmp eq i64 %17, 4294967295
  %brmerge = or i1 %18, %.not.not
  br i1 %brmerge, label %_ZN4llvm10AArch64_AML17isAnyMOVZMovAliasEmi.exit, label %.lr.ph.i18

_ZN4llvm10AArch64_AML17isAnyMOVZMovAliasEmi.exit: ; preds = %.lr.ph.i, %.lr.ph.i13, %.lr.ph.i18, %2
  %.0 = phi i1 [ false, %2 ], [ %18, %.lr.ph.i18 ], [ %14, %.lr.ph.i13 ], [ true, %.lr.ph.i ]
  ret i1 %.0
}